#include <math.h>
#include <stdio.h>
#include <stdlib.h>
#include <string.h>

int main()
{
	int n,K,i,j;
	int a[1000];
	scanf("%d %d/n",&n,&K);
	for(i=0;i<n;i++)
	{
		scanf("%d",&a[i]);
	}
	for(i=0;i<n;i++)
	{
		for(j=i+1;j<n;j++)
		{
			if((a[i]+a[j])==K)
			{	
			goto first;
			}
		}
	}
	goto third;
	first:printf("yes");goto second;
	third:printf("no");return 0;
	second:return 0;	
}