; ModuleID = '3/2718.c'
source_filename = "3/2718.c"
target datalayout = "e-m:e-p270:32:32-p271:32:32-p272:64:64-i64:64-f80:128-n8:16:32:64-S128"
target triple = "x86_64-pc-linux-gnu"

@.str = private unnamed_addr constant [8 x i8] c"%d %d/n\00", align 1
@.str.1 = private unnamed_addr constant [3 x i8] c"%d\00", align 1
@.str.2 = private unnamed_addr constant [4 x i8] c"yes\00", align 1
@.str.3 = private unnamed_addr constant [3 x i8] c"no\00", align 1

; Function Attrs: noinline nounwind uwtable
define dso_local i32 @main() #0 {
  %1 = alloca i32, align 4
  %2 = alloca i32, align 4
  %3 = alloca i32, align 4
  %4 = alloca i32, align 4
  %5 = alloca i32, align 4
  %6 = alloca [1000 x i32], align 16
  store i32 0, i32* %1, align 4
  %7 = call i32 (i8*, ...) @__isoc99_scanf(i8* getelementptr inbounds ([8 x i8], [8 x i8]* @.str, i64 0, i64 0), i32* %2, i32* %3)
  store i32 0, i32* %4, align 4
  br label %8

8:                                                ; preds = %17, %0
  %9 = load i32, i32* %4, align 4
  %10 = load i32, i32* %2, align 4
  %11 = icmp slt i32 %9, %10
  br i1 %11, label %12, label %20

12:                                               ; preds = %8
  %13 = load i32, i32* %4, align 4
  %14 = sext i32 %13 to i64
  %15 = getelementptr inbounds [1000 x i32], [1000 x i32]* %6, i64 0, i64 %14
  %16 = call i32 (i8*, ...) @__isoc99_scanf(i8* getelementptr inbounds ([3 x i8], [3 x i8]* @.str.1, i64 0, i64 0), i32* %15)
  br label %17

17:                                               ; preds = %12
  %18 = load i32, i32* %4, align 4
  %19 = add nsw i32 %18, 1
  store i32 %19, i32* %4, align 4
  br label %8

20:                                               ; preds = %8
  store i32 0, i32* %4, align 4
  br label %21

21:                                               ; preds = %50, %20
  %22 = load i32, i32* %4, align 4
  %23 = load i32, i32* %2, align 4
  %24 = icmp slt i32 %22, %23
  br i1 %24, label %25, label %53

25:                                               ; preds = %21
  %26 = load i32, i32* %4, align 4
  %27 = add nsw i32 %26, 1
  store i32 %27, i32* %5, align 4
  br label %28

28:                                               ; preds = %46, %25
  %29 = load i32, i32* %5, align 4
  %30 = load i32, i32* %2, align 4
  %31 = icmp slt i32 %29, %30
  br i1 %31, label %32, label %49

32:                                               ; preds = %28
  %33 = load i32, i32* %4, align 4
  %34 = sext i32 %33 to i64
  %35 = getelementptr inbounds [1000 x i32], [1000 x i32]* %6, i64 0, i64 %34
  %36 = load i32, i32* %35, align 4
  %37 = load i32, i32* %5, align 4
  %38 = sext i32 %37 to i64
  %39 = getelementptr inbounds [1000 x i32], [1000 x i32]* %6, i64 0, i64 %38
  %40 = load i32, i32* %39, align 4
  %41 = add nsw i32 %36, %40
  %42 = load i32, i32* %3, align 4
  %43 = icmp eq i32 %41, %42
  br i1 %43, label %44, label %45

44:                                               ; preds = %32
  br label %54

45:                                               ; preds = %32
  br label %46

46:                                               ; preds = %45
  %47 = load i32, i32* %5, align 4
  %48 = add nsw i32 %47, 1
  store i32 %48, i32* %5, align 4
  br label %28

49:                                               ; preds = %28
  br label %50

50:                                               ; preds = %49
  %51 = load i32, i32* %4, align 4
  %52 = add nsw i32 %51, 1
  store i32 %52, i32* %4, align 4
  br label %21

53:                                               ; preds = %21
  br label %56

54:                                               ; preds = %44
  %55 = call i32 (i8*, ...) @printf(i8* getelementptr inbounds ([4 x i8], [4 x i8]* @.str.2, i64 0, i64 0))
  br label %58

56:                                               ; preds = %53
  %57 = call i32 (i8*, ...) @printf(i8* getelementptr inbounds ([3 x i8], [3 x i8]* @.str.3, i64 0, i64 0))
  store i32 0, i32* %1, align 4
  br label %59

58:                                               ; preds = %54
  store i32 0, i32* %1, align 4
  br label %59

59:                                               ; preds = %58, %56
  %60 = load i32, i32* %1, align 4
  ret i32 %60
}

declare dso_local i32 @__isoc99_scanf(i8*, ...) #1

declare dso_local i32 @printf(i8*, ...) #1


!llvm.module.flags = !{!0}
!llvm.ident = !{!1}

!0 = !{i32 1, !"wchar_size", i32 4}
!1 = !{!"clang version 10.0.0-4ubuntu1 "}
